target datalayout = "e-m:e-p270:32:32-p271:32:32-p272:64:64-i64:64-i128:128-f80:128-n8:16:32:64-S128"
target triple = "x86_64-pc-linux-gnu"

%class.Block_Array = type { i32, ptr, ptr }
%class.Block = type { %class.CFGElement, %class.Node_List, %class.Block_Array, i32, i32, i32, ptr, ptr, i32, i32, i32, i32, i32, i32, i32, i32, i8, i32 }
%class.CFGElement = type { ptr, double }
%class.Node_List = type <{ %class.Node_Array, i32, [4 x i8] }>
%class.Node_Array = type { ptr, i32, ptr }
%class.MachNode = type { %class.Node.base, i8, i16, ptr }
%class.Node.base = type <{ ptr, ptr, ptr, i32, i32, i32, i32, i32, i32, i32 }>
%class.MachIfNode = type { %class.MachBranchNode, float, float }
%class.MachBranchNode = type { %class.MachIdealNode }
%class.MachIdealNode = type { %class.MachNode }

; Function Attrs: mustprogress nounwind uwtable
define linkonce_odr hidden noundef ptr @_ZNK10Node_ArrayixEj(ptr noundef nonnull align 8 dereferenceable(24) %0, i32 noundef %1) #1 comdat align 2 {
  %3 = alloca ptr, align 8
  %4 = alloca i32, align 4
  store ptr %0, ptr %3, align 8
  store i32 %1, ptr %4, align 4
  %5 = load ptr, ptr %3, align 8
  %6 = load i32, ptr %4, align 4
  %7 = getelementptr inbounds %class.Node_Array, ptr %5, i32 0, i32 1
  %8 = load i32, ptr %7, align 8
  %9 = icmp ult i32 %6, %8
  br i1 %9, label %10, label %17

10:                                               ; preds = %2
  %11 = getelementptr inbounds %class.Node_Array, ptr %5, i32 0, i32 2
  %12 = load ptr, ptr %11, align 8
  %13 = load i32, ptr %4, align 4
  %14 = zext i32 %13 to i64
  %15 = getelementptr inbounds ptr, ptr %12, i64 %14
  %16 = load ptr, ptr %15, align 8
  br label %18

17:                                               ; preds = %2
  br label %18

18:                                               ; preds = %17, %10
  %19 = phi ptr [ %16, %10 ], [ null, %17 ]
  ret ptr %19
}

; Function Attrs: mustprogress nounwind uwtable
define linkonce_odr hidden noundef i32 @_ZNK9Node_List4sizeEv(ptr noundef nonnull align 8 dereferenceable(28) %0) #1 comdat align 2 {
  %2 = alloca ptr, align 8
  store ptr %0, ptr %2, align 8
  %3 = load ptr, ptr %2, align 8
  %4 = getelementptr inbounds %class.Node_List, ptr %3, i32 0, i32 1
  %5 = load i32, ptr %4, align 8
  ret i32 %5
}

; Function Attrs: mustprogress nounwind uwtable
define linkonce_odr hidden noundef ptr @_ZNK4Node9as_MachIfEv(ptr noundef nonnull align 8 dereferenceable(52) %0) #1 comdat align 2 {
  %2 = alloca ptr, align 8
  store ptr %0, ptr %2, align 8
  %3 = load ptr, ptr %2, align 8
  ret ptr %3
}

; Function Attrs: mustprogress nounwind uwtable
define linkonce_odr hidden noundef ptr @_ZNK11Block_ArrayixEj(ptr noundef nonnull align 8 dereferenceable(24) %0, i32 noundef %1) #1 comdat align 2 {
  %3 = alloca ptr, align 8
  %4 = alloca i32, align 4
  store ptr %0, ptr %3, align 8
  store i32 %1, ptr %4, align 4
  %5 = load ptr, ptr %3, align 8
  %6 = getelementptr inbounds %class.Block_Array, ptr %5, i32 0, i32 2
  %7 = load ptr, ptr %6, align 8
  %8 = load i32, ptr %4, align 4
  %9 = zext i32 %8 to i64
  %10 = getelementptr inbounds ptr, ptr %7, i64 %9
  %11 = load ptr, ptr %10, align 8
  ret ptr %11
}

; Function Attrs: mustprogress nounwind uwtable
define linkonce_odr hidden noundef ptr @_ZNK4Node7as_MachEv(ptr noundef nonnull align 8 dereferenceable(52) %0) #1 comdat align 2 {
  %2 = alloca ptr, align 8
  store ptr %0, ptr %2, align 8
  %3 = load ptr, ptr %2, align 8
  ret ptr %3
}

; Function Attrs: mustprogress nounwind uwtable
define linkonce_odr hidden noundef ptr @_ZNK5Block8get_nodeEj(ptr noundef nonnull align 8 dereferenceable(144) %0, i32 noundef %1) #1 comdat align 2 {
  %3 = alloca ptr, align 8
  %4 = alloca i32, align 4
  store ptr %0, ptr %3, align 8
  store i32 %1, ptr %4, align 4
  %5 = load ptr, ptr %3, align 8
  %6 = getelementptr inbounds %class.Block, ptr %5, i32 0, i32 1
  %7 = load i32, ptr %4, align 4
  %8 = call noundef ptr @_ZNK10Node_ArrayixEj(ptr noundef nonnull align 8 dereferenceable(24) %6, i32 noundef %7)
  ret ptr %8
}

; Function Attrs: mustprogress nounwind uwtable
define linkonce_odr hidden noundef i32 @_ZNK5Block7end_idxEv(ptr noundef nonnull align 8 dereferenceable(144) %0) #1 comdat align 2 {
  %2 = alloca ptr, align 8
  %3 = alloca i32, align 4
  %4 = alloca ptr, align 8
  store ptr %0, ptr %2, align 8
  %5 = load ptr, ptr %2, align 8
  %6 = getelementptr inbounds %class.Block, ptr %5, i32 0, i32 1
  %7 = call noundef i32 @_ZNK9Node_List4sizeEv(ptr noundef nonnull align 8 dereferenceable(28) %6)
  %8 = sub i32 %7, 1
  store i32 %8, ptr %3, align 4
  %9 = getelementptr inbounds %class.Block, ptr %5, i32 0, i32 1
  %10 = load i32, ptr %3, align 4
  %11 = call noundef ptr @_ZNK10Node_ArrayixEj(ptr noundef nonnull align 8 dereferenceable(24) %9, i32 noundef %10)
  store ptr %11, ptr %4, align 8
  %12 = load ptr, ptr %4, align 8
  %13 = load ptr, ptr %12, align 8
  %14 = getelementptr inbounds ptr, ptr %13, i64 4
  %15 = load ptr, ptr %14, align 8
  %16 = call noundef ptr %15(ptr noundef nonnull align 8 dereferenceable(52) %12)
  %17 = load ptr, ptr %4, align 8
  %18 = icmp eq ptr %16, %17
  br i1 %18, label %19, label %21

19:                                               ; preds = %1
  %20 = load i32, ptr %3, align 4
  br label %26

21:                                               ; preds = %1
  %22 = load i32, ptr %3, align 4
  %23 = getelementptr inbounds %class.Block, ptr %5, i32 0, i32 3
  %24 = load i32, ptr %23, align 8
  %25 = sub i32 %22, %24
  br label %26

26:                                               ; preds = %21, %19
  %27 = phi i32 [ %20, %19 ], [ %25, %21 ]
  ret i32 %27
}

; Function Attrs: mustprogress nounwind uwtable
define hidden void @_ZN5Block22update_uncommon_branchEPS_(ptr noundef nonnull align 8 dereferenceable(144) %0, ptr noundef %1) #1 align 2 {
  %3 = alloca ptr, align 8
  %4 = alloca ptr, align 8
  %5 = alloca i32, align 4
  %6 = alloca ptr, align 8
  %7 = alloca i32, align 4
  %8 = alloca i32, align 4
  %9 = alloca i8, align 1
  %10 = alloca float, align 4
  store ptr %0, ptr %3, align 8
  store ptr %1, ptr %4, align 8
  %11 = load ptr, ptr %3, align 8
  %12 = call noundef i32 @_ZNK5Block7end_idxEv(ptr noundef nonnull align 8 dereferenceable(144) %11)
  store i32 %12, ptr %5, align 4
  %13 = load i32, ptr %5, align 4
  %14 = call noundef ptr @_ZNK5Block8get_nodeEj(ptr noundef nonnull align 8 dereferenceable(144) %11, i32 noundef %13)
  store ptr %14, ptr %6, align 8
  %15 = load ptr, ptr %6, align 8
  %16 = call noundef ptr @_ZNK4Node7as_MachEv(ptr noundef nonnull align 8 dereferenceable(52) %15)
  %17 = load ptr, ptr %16, align 8
  %18 = getelementptr inbounds ptr, ptr %17, i64 41
  %19 = load ptr, ptr %18, align 8
  %20 = call noundef i32 %19(ptr noundef nonnull align 8 dereferenceable(64) %16)
  store i32 %20, ptr %7, align 4
  store i32 0, ptr %8, align 4
  br label %21

21:                                               ; preds = %34, %2
  %22 = load i32, ptr %8, align 4
  %23 = getelementptr inbounds %class.Block, ptr %11, i32 0, i32 3
  %24 = load i32, ptr %23, align 8
  %25 = icmp ult i32 %22, %24
  br i1 %25, label %26, label %37

26:                                               ; preds = %21
  %27 = getelementptr inbounds %class.Block, ptr %11, i32 0, i32 2
  %28 = load i32, ptr %8, align 4
  %29 = call noundef ptr @_ZNK11Block_ArrayixEj(ptr noundef nonnull align 8 dereferenceable(24) %27, i32 noundef %28)
  %30 = load ptr, ptr %4, align 8
  %31 = icmp eq ptr %29, %30
  br i1 %31, label %32, label %33

32:                                               ; preds = %26
  br label %37

33:                                               ; preds = %26
  br label %34

34:                                               ; preds = %33
  %35 = load i32, ptr %8, align 4
  %36 = add i32 %35, 1
  store i32 %36, ptr %8, align 4
  br label %21, !llvm.loop !57

37:                                               ; preds = %32, %21
  %38 = load i32, ptr %8, align 4
  %39 = load i32, ptr %5, align 4
  %40 = add i32 %38, %39
  %41 = add i32 %40, 1
  %42 = call noundef ptr @_ZNK5Block8get_nodeEj(ptr noundef nonnull align 8 dereferenceable(144) %11, i32 noundef %41)
  %43 = load ptr, ptr %42, align 8
  %44 = getelementptr inbounds ptr, ptr %43, i64 0
  %45 = load ptr, ptr %44, align 8
  %46 = call noundef i32 %45(ptr noundef nonnull align 8 dereferenceable(52) %42)
  %47 = icmp eq i32 %46, 179
  %48 = zext i1 %47 to i8
  store i8 %48, ptr %9, align 1
  %49 = load ptr, ptr %6, align 8
  %50 = call noundef ptr @_ZNK4Node9as_MachIfEv(ptr noundef nonnull align 8 dereferenceable(52) %49)
  %51 = getelementptr inbounds %class.MachIfNode, ptr %50, i32 0, i32 1
  %52 = load float, ptr %51, align 8
  store float %52, ptr %10, align 4
  %53 = load i8, ptr %9, align 1
  %54 = trunc i8 %53 to i1
  br i1 %54, label %55, label %60

55:                                               ; preds = %37
  %56 = load float, ptr %10, align 4
  %57 = fpext float %56 to double
  %58 = fsub double 1.000000e+00, %57
  %59 = fptrunc double %58 to float
  store float %59, ptr %10, align 4
  br label %60

60:                                               ; preds = %55, %37
  %61 = load float, ptr %10, align 4
  %62 = fcmp ogt float %61, 0x3EB0C6F7A0000000
  br i1 %62, label %63, label %64

63:                                               ; preds = %60
  store float 0x3EB0C6F7A0000000, ptr %10, align 4
  br label %64

64:                                               ; preds = %63, %60
  %65 = load i8, ptr %9, align 1
  %66 = trunc i8 %65 to i1
  br i1 %66, label %67, label %72

67:                                               ; preds = %64
  %68 = load float, ptr %10, align 4
  %69 = fpext float %68 to double
  %70 = fsub double 1.000000e+00, %69
  %71 = fptrunc double %70 to float
  store float %71, ptr %10, align 4
  br label %72

72:                                               ; preds = %67, %64
  %73 = load float, ptr %10, align 4
  %74 = load ptr, ptr %6, align 8
  %75 = call noundef ptr @_ZNK4Node9as_MachIfEv(ptr noundef nonnull align 8 dereferenceable(52) %74)
  %76 = getelementptr inbounds %class.MachIfNode, ptr %75, i32 0, i32 1
  store float %73, ptr %76, align 8
  ret void
}