; Function Attrs: mustprogress nounwind uwtable
define hidden void @_ZN5Block22update_uncommon_branchEPS_(ptr nocapture noundef nonnull readonly align 8 dereferenceable(144) %0, ptr noundef readnone %1) local_unnamed_addr #0 align 2 {
  %3 = getelementptr inbounds i8, ptr %0, i64 40
  %4 = load i32, ptr %3, align 8
  %5 = add i32 %4, -1
  %6 = getelementptr inbounds i8, ptr %0, i64 24
  %7 = load i32, ptr %6, align 8
  %8 = icmp ugt i32 %7, %5
  br i1 %8, label %9, label %_ZNK5Block7end_idxEv.exit

9:                                                ; preds = %2
  %10 = getelementptr inbounds i8, ptr %0, i64 32
  %11 = load ptr, ptr %10, align 8
  %12 = zext i32 %5 to i64
  %13 = getelementptr inbounds ptr, ptr %11, i64 %12
  %14 = load ptr, ptr %13, align 8
  br label %_ZNK5Block7end_idxEv.exit

_ZNK5Block7end_idxEv.exit:                        ; preds = %2, %9
  %15 = phi ptr [ %14, %9 ], [ null, %2 ]
  %16 = load ptr, ptr %15, align 8
  %17 = getelementptr inbounds i8, ptr %16, i64 32
  %18 = load ptr, ptr %17, align 8
  %19 = tail call noundef ptr %18(ptr noundef nonnull align 8 dereferenceable(52) %15) #14
  %20 = icmp eq ptr %19, %15
  %21 = getelementptr inbounds i8, ptr %0, i64 72
  %22 = load i32, ptr %21, align 8
  %23 = select i1 %20, i32 0, i32 %22
  %24 = sub i32 %5, %23
  %25 = load i32, ptr %6, align 8
  %26 = icmp ugt i32 %25, %24
  br i1 %26, label %27, label %_ZNK5Block8get_nodeEj.exit

27:                                               ; preds = %_ZNK5Block7end_idxEv.exit
  %28 = getelementptr inbounds i8, ptr %0, i64 32
  %29 = load ptr, ptr %28, align 8
  %30 = zext i32 %24 to i64
  %31 = getelementptr inbounds ptr, ptr %29, i64 %30
  %32 = load ptr, ptr %31, align 8
  br label %_ZNK5Block8get_nodeEj.exit

_ZNK5Block8get_nodeEj.exit:                       ; preds = %_ZNK5Block7end_idxEv.exit, %27
  %33 = phi ptr [ %32, %27 ], [ null, %_ZNK5Block7end_idxEv.exit ]
  %34 = load ptr, ptr %33, align 8
  %35 = getelementptr inbounds i8, ptr %34, i64 328
  %36 = load ptr, ptr %35, align 8
  %37 = tail call noundef i32 %36(ptr noundef nonnull align 8 dereferenceable(64) %33) #14
  %38 = load i32, ptr %21, align 8
  %.not = icmp eq i32 %38, 0
  br i1 %.not, label %_ZNK5Block8get_nodeEj.exit17, label %.lr.ph

.lr.ph:                                           ; preds = %_ZNK5Block8get_nodeEj.exit
  %39 = getelementptr inbounds i8, ptr %0, i64 64
  %40 = load ptr, ptr %39, align 8
  %wide.trip.count = zext i32 %38 to i64
  br label %41

41:                                               ; preds = %.lr.ph, %45
  %indvars.iv = phi i64 [ 0, %.lr.ph ], [ %indvars.iv.next, %45 ]
  %42 = getelementptr inbounds ptr, ptr %40, i64 %indvars.iv
  %43 = load ptr, ptr %42, align 8
  %44 = icmp eq ptr %43, %1
  br i1 %44, label %_ZNK5Block8get_nodeEj.exit17.loopexit.split.loop.exit, label %45

45:                                               ; preds = %41
  %indvars.iv.next = add nuw nsw i64 %indvars.iv, 1
  %exitcond.not = icmp eq i64 %indvars.iv.next, %wide.trip.count
  br i1 %exitcond.not, label %_ZNK5Block8get_nodeEj.exit17, label %41, !llvm.loop !56

_ZNK5Block8get_nodeEj.exit17.loopexit.split.loop.exit: ; preds = %41
  %46 = trunc nuw i64 %indvars.iv to i32
  br label %_ZNK5Block8get_nodeEj.exit17

_ZNK5Block8get_nodeEj.exit17:                     ; preds = %45, %_ZNK5Block8get_nodeEj.exit17.loopexit.split.loop.exit, %_ZNK5Block8get_nodeEj.exit
  %.016.lcssa = phi i32 [ 0, %_ZNK5Block8get_nodeEj.exit ], [ %46, %_ZNK5Block8get_nodeEj.exit17.loopexit.split.loop.exit ], [ %38, %45 ]
  %47 = add i32 %24, 1
  %48 = add i32 %47, %.016.lcssa
  %49 = load i32, ptr %6, align 8
  %50 = icmp ugt i32 %49, %48
  tail call void @llvm.assume(i1 %50)
  %51 = getelementptr inbounds i8, ptr %0, i64 32
  %52 = load ptr, ptr %51, align 8
  %53 = zext i32 %48 to i64
  %54 = getelementptr inbounds ptr, ptr %52, i64 %53
  %55 = load ptr, ptr %54, align 8
  %56 = load ptr, ptr %55, align 8
  %57 = load ptr, ptr %56, align 8
  %58 = tail call noundef i32 %57(ptr noundef nonnull align 8 dereferenceable(52) %55) #14
  %59 = icmp eq i32 %58, 179
  %60 = getelementptr inbounds i8, ptr %33, i64 64
  %61 = load float, ptr %60, align 8
  %62 = fsub float 1.000000e+00, %61
  %.0 = select i1 %59, float %62, float %61
  %63 = fcmp ogt float %.0, 0x3EB0C6F7A0000000
  %.1 = select i1 %63, float 0x3EB0C6F7A0000000, float %.0
  %64 = fsub float 1.000000e+00, %.1
  %.2 = select i1 %59, float %64, float %.1
  store float %.2, ptr %60, align 8
  ret void
}